---
triple:          'x86_64-apple-darwin'
binary-path:     '/Users/challmann/dev/customDev/cpp/mygame/main'
relocations:
  - { offsetInCU: 0x44AD, offset: 0x44AD, size: 0x8, addend: 0x0, symName: __ZNSt3__118__constexpr_strlenB8ue170006EPKc, symObjAddr: 0x7F0, symBinAddr: 0x100001920, symSize: 0x1B }
  - { offsetInCU: 0x68B6, offset: 0x68B6, size: 0x8, addend: 0x0, symName: _main, symObjAddr: 0x0, symBinAddr: 0x100001130, symSize: 0x5D0 }
  - { offsetInCU: 0x804C, offset: 0x804C, size: 0x8, addend: 0x0, symName: __ZN6PlayerC1Ev, symObjAddr: 0x5D0, symBinAddr: 0x100001700, symSize: 0x20 }
  - { offsetInCU: 0x807B, offset: 0x807B, size: 0x8, addend: 0x0, symName: __ZNSt3__112basic_stringIcNS_11char_traitsIcEENS_9allocatorIcEEEC1B8ue170006ILi0EEEPKc, symObjAddr: 0x5F0, symBinAddr: 0x100001720, symSize: 0x30 }
  - { offsetInCU: 0x80B8, offset: 0x80B8, size: 0x8, addend: 0x0, symName: __ZN6PlayerD1Ev, symObjAddr: 0x620, symBinAddr: 0x100001750, symSize: 0x20 }
  - { offsetInCU: 0x80E2, offset: 0x80E2, size: 0x8, addend: 0x0, symName: __ZN6PlayerC2Ev, symObjAddr: 0x650, symBinAddr: 0x100001780, symSize: 0x40 }
  - { offsetInCU: 0x810C, offset: 0x810C, size: 0x8, addend: 0x0, symName: __ZN6PlayerD2Ev, symObjAddr: 0x690, symBinAddr: 0x1000017C0, symSize: 0x20 }
  - { offsetInCU: 0x8136, offset: 0x8136, size: 0x8, addend: 0x0, symName: __ZNSt3__112basic_stringIcNS_11char_traitsIcEENS_9allocatorIcEEEC2B8ue170006ILi0EEEPKc, symObjAddr: 0x6B0, symBinAddr: 0x1000017E0, symSize: 0x50 }
  - { offsetInCU: 0x8178, offset: 0x8178, size: 0x8, addend: 0x0, symName: __ZNSt3__117__compressed_pairINS_12basic_stringIcNS_11char_traitsIcEENS_9allocatorIcEEE5__repES5_EC1B8ue170006INS_18__default_init_tagESA_EEOT_OT0_, symObjAddr: 0x700, symBinAddr: 0x100001830, symSize: 0x30 }
  - { offsetInCU: 0x81CE, offset: 0x81CE, size: 0x8, addend: 0x0, symName: __ZNSt3__111char_traitsIcE6lengthB8ue170006EPKc, symObjAddr: 0x730, symBinAddr: 0x100001860, symSize: 0x30 }
  - { offsetInCU: 0x81F0, offset: 0x81F0, size: 0x8, addend: 0x0, symName: __ZNSt3__117__compressed_pairINS_12basic_stringIcNS_11char_traitsIcEENS_9allocatorIcEEE5__repES5_EC2B8ue170006INS_18__default_init_tagESA_EEOT_OT0_, symObjAddr: 0x760, symBinAddr: 0x100001890, symSize: 0x30 }
  - { offsetInCU: 0x8246, offset: 0x8246, size: 0x8, addend: 0x0, symName: __ZNSt3__122__compressed_pair_elemINS_12basic_stringIcNS_11char_traitsIcEENS_9allocatorIcEEE5__repELi0ELb0EEC2B8ue170006ENS_18__default_init_tagE, symObjAddr: 0x790, symBinAddr: 0x1000018C0, symSize: 0x10 }
  - { offsetInCU: 0x8278, offset: 0x8278, size: 0x8, addend: 0x0, symName: __ZNSt3__122__compressed_pair_elemINS_9allocatorIcEELi1ELb1EEC2B8ue170006ENS_18__default_init_tagE, symObjAddr: 0x7A0, symBinAddr: 0x1000018D0, symSize: 0x20 }
  - { offsetInCU: 0x82AA, offset: 0x82AA, size: 0x8, addend: 0x0, symName: __ZNSt3__19allocatorIcEC2B8ue170006Ev, symObjAddr: 0x7C0, symBinAddr: 0x1000018F0, symSize: 0x20 }
  - { offsetInCU: 0x82D2, offset: 0x82D2, size: 0x8, addend: 0x0, symName: __ZNSt3__116__non_trivial_ifILb1ENS_9allocatorIcEEEC2B8ue170006Ev, symObjAddr: 0x7E0, symBinAddr: 0x100001910, symSize: 0x10 }
  - { offsetInCU: 0x26, offset: 0x8339, size: 0x8, addend: 0x0, symName: __ZN9ComponentC2Ev, symObjAddr: 0x0, symBinAddr: 0x100001940, symSize: 0x20 }
  - { offsetInCU: 0x2983, offset: 0xAC96, size: 0x8, addend: 0x0, symName: __ZN9ComponentC2Ev, symObjAddr: 0x0, symBinAddr: 0x100001940, symSize: 0x20 }
  - { offsetInCU: 0x29AD, offset: 0xACC0, size: 0x8, addend: 0x0, symName: __ZN9ComponentC1Ev, symObjAddr: 0x20, symBinAddr: 0x100001960, symSize: 0x20 }
  - { offsetInCU: 0x29D7, offset: 0xACEA, size: 0x8, addend: 0x0, symName: __ZN9ComponentD2Ev, symObjAddr: 0x40, symBinAddr: 0x100001980, symSize: 0x10 }
  - { offsetInCU: 0x2A01, offset: 0xAD14, size: 0x8, addend: 0x0, symName: __ZN9ComponentD1Ev, symObjAddr: 0x50, symBinAddr: 0x100001990, symSize: 0x20 }
  - { offsetInCU: 0x2A2B, offset: 0xAD3E, size: 0x8, addend: 0x0, symName: __ZN9Component9get_worldEv, symObjAddr: 0x70, symBinAddr: 0x1000019B0, symSize: 0x20 }
  - { offsetInCU: 0x2A51, offset: 0xAD64, size: 0x8, addend: 0x0, symName: __ZN9Component9set_worldEP9GameWorld, symObjAddr: 0x90, symBinAddr: 0x1000019D0, symSize: 0x20 }
  - { offsetInCU: 0x2A85, offset: 0xAD98, size: 0x8, addend: 0x0, symName: __ZN9Component6updateEv, symObjAddr: 0xB0, symBinAddr: 0x1000019F0, symSize: 0x10 }
  - { offsetInCU: 0x2AAB, offset: 0xADBE, size: 0x8, addend: 0x0, symName: __ZN9Component6renderEP12SDL_Renderer, symObjAddr: 0xC0, symBinAddr: 0x100001A00, symSize: 0xE }
  - { offsetInCU: 0x4291, offset: 0xF088, size: 0x8, addend: 0x0, symName: __ZNSt3__124__put_character_sequenceB8ue170006IcNS_11char_traitsIcEEEERNS_13basic_ostreamIT_T0_EES7_PKS4_m, symObjAddr: 0x11E0, symBinAddr: 0x100002BE0, symSize: 0x1F0 }
  - { offsetInCU: 0x60EF, offset: 0x10EE6, size: 0x8, addend: 0x0, symName: __ZNSt3__1lsB8ue170006INS_11char_traitsIcEEEERNS_13basic_ostreamIcT_EES6_PKc, symObjAddr: 0x430, symBinAddr: 0x100001E40, symSize: 0x40 }
  - { offsetInCU: 0x6135, offset: 0x10F2C, size: 0x8, addend: 0x0, symName: __ZNSt3__14endlB8ue170006IcNS_11char_traitsIcEEEERNS_13basic_ostreamIT_T0_EES7_, symObjAddr: 0x490, symBinAddr: 0x100001EA0, symSize: 0x50 }
  - { offsetInCU: 0x6175, offset: 0x10F6C, size: 0x8, addend: 0x0, symName: __ZNSt3__1neB8ue170006IPP9ComponentEEbRKNS_11__wrap_iterIT_EES8_, symObjAddr: 0x740, symBinAddr: 0x100002140, symSize: 0x30 }
  - { offsetInCU: 0x61B8, offset: 0x10FAF, size: 0x8, addend: 0x0, symName: __ZNSt3__1eqB8ue170006IPP9ComponentEEbRKNS_11__wrap_iterIT_EES8_, symObjAddr: 0xAE0, symBinAddr: 0x1000024E0, symSize: 0x40 }
  - { offsetInCU: 0x61FB, offset: 0x10FF2, size: 0x8, addend: 0x0, symName: __ZNSt3__112__to_addressB8ue170006IP9ComponentEEPT_S4_, symObjAddr: 0xF80, symBinAddr: 0x100002980, symSize: 0x10 }
  - { offsetInCU: 0x6230, offset: 0x11027, size: 0x8, addend: 0x0, symName: __ZNSt3__119__libcpp_deallocateB8ue170006EPvmm, symObjAddr: 0x1040, symBinAddr: 0x100002A40, symSize: 0x60 }
  - { offsetInCU: 0x6298, offset: 0x1108F, size: 0x8, addend: 0x0, symName: __ZNSt3__124__is_overaligned_for_newB8ue170006Em, symObjAddr: 0x10A0, symBinAddr: 0x100002AA0, symSize: 0x20 }
  - { offsetInCU: 0x62C6, offset: 0x110BD, size: 0x8, addend: 0x0, symName: __ZNSt3__127__do_deallocate_handle_sizeB8ue170006IJSt11align_val_tEEEvPvmDpT_, symObjAddr: 0x10C0, symBinAddr: 0x100002AC0, symSize: 0x30 }
  - { offsetInCU: 0x631A, offset: 0x11111, size: 0x8, addend: 0x0, symName: __ZNSt3__127__do_deallocate_handle_sizeB8ue170006IJEEEvPvmDpT_, symObjAddr: 0x10F0, symBinAddr: 0x100002AF0, symSize: 0x20 }
  - { offsetInCU: 0x635A, offset: 0x11151, size: 0x8, addend: 0x0, symName: __ZNSt3__124__libcpp_operator_deleteB8ue170006IJPvSt11align_val_tEEEvDpT_, symObjAddr: 0x1110, symBinAddr: 0x100002B10, symSize: 0x30 }
  - { offsetInCU: 0x63A4, offset: 0x1119B, size: 0x8, addend: 0x0, symName: __ZNSt3__124__libcpp_operator_deleteB8ue170006IJPvEEEvDpT_, symObjAddr: 0x1140, symBinAddr: 0x100002B40, symSize: 0x20 }
  - { offsetInCU: 0x63DA, offset: 0x111D1, size: 0x8, addend: 0x0, symName: __ZNSt3__116__pad_and_outputB8ue170006IcNS_11char_traitsIcEEEENS_19ostreambuf_iteratorIT_T0_EES6_PKS4_S8_S8_RNS_8ios_baseES4_, symObjAddr: 0x1420, symBinAddr: 0x100002DF0, symSize: 0x220 }
  - { offsetInCU: 0x64AE, offset: 0x112A5, size: 0x8, addend: 0x0, symName: __ZNSt3__112__to_addressB8ue170006IcEEPT_S2_, symObjAddr: 0x1940, symBinAddr: 0x100003250, symSize: 0x10 }
  - { offsetInCU: 0x6516, offset: 0x1130D, size: 0x8, addend: 0x0, symName: __ZNSt3__19use_facetB8ue170006INS_5ctypeIcEEEERKT_RKNS_6localeE, symObjAddr: 0x1BD0, symBinAddr: 0x1000034E0, symSize: 0x30 }
  - { offsetInCU: 0x69EC, offset: 0x117E3, size: 0x8, addend: 0x0, symName: __ZNSt3__13maxB8ue170006ImEERKT_S3_S3_, symObjAddr: 0x2250, symBinAddr: 0x100003B40, symSize: 0x30 }
  - { offsetInCU: 0x6A2F, offset: 0x11826, size: 0x8, addend: 0x0, symName: __ZNSt3__13minB8ue170006ImEERKT_S3_S3_, symObjAddr: 0x2280, symBinAddr: 0x100003B70, symSize: 0x30 }
  - { offsetInCU: 0x6C5C, offset: 0x11A53, size: 0x8, addend: 0x0, symName: __ZNSt3__13minB8ue170006ImNS_6__lessIvvEEEERKT_S5_S5_T0_, symObjAddr: 0x2300, symBinAddr: 0x100003BF0, symSize: 0x50 }
  - { offsetInCU: 0x6CFD, offset: 0x11AF4, size: 0x8, addend: 0x0, symName: __ZNSt3__120__throw_length_errorB8ue170006EPKc, symObjAddr: 0x23E0, symBinAddr: 0x100003CD0, symSize: 0x70 }
  - { offsetInCU: 0x6D28, offset: 0x11B1F, size: 0x8, addend: 0x0, symName: __ZNSt3__13maxB8ue170006ImNS_6__lessIvvEEEERKT_S5_S5_T0_, symObjAddr: 0x24C0, symBinAddr: 0x100003DB0, symSize: 0x50 }
  - { offsetInCU: 0x6D82, offset: 0x11B79, size: 0x8, addend: 0x0, symName: __ZNSt3__119__allocate_at_leastB8ue170006INS_9allocatorIP9ComponentEEEENS_19__allocation_resultINS_16allocator_traitsIT_E7pointerEEERS7_m, symObjAddr: 0x2610, symBinAddr: 0x100003F00, symSize: 0x40 }
  - { offsetInCU: 0x6DC5, offset: 0x11BBC, size: 0x8, addend: 0x0, symName: __ZNSt3__117__libcpp_allocateB8ue170006Emm, symObjAddr: 0x2780, symBinAddr: 0x100004070, symSize: 0x60 }
  - { offsetInCU: 0x6E21, offset: 0x11C18, size: 0x8, addend: 0x0, symName: __ZNSt3__121__libcpp_operator_newB8ue170006IJmSt11align_val_tEEEPvDpT_, symObjAddr: 0x27E0, symBinAddr: 0x1000040D0, symSize: 0x30 }
  - { offsetInCU: 0x6E6E, offset: 0x11C65, size: 0x8, addend: 0x0, symName: __ZNSt3__121__libcpp_operator_newB8ue170006IJmEEEPvDpT_, symObjAddr: 0x2810, symBinAddr: 0x100004100, symSize: 0x20 }
  - { offsetInCU: 0x6EA7, offset: 0x11C9E, size: 0x8, addend: 0x0, symName: __ZNSt3__142__uninitialized_allocator_move_if_noexceptB8ue170006INS_9allocatorIP9ComponentEENS_16reverse_iteratorIPS3_EES7_S3_vEET1_RT_T0_SB_S8_, symObjAddr: 0x2890, symBinAddr: 0x100004180, symSize: 0x70 }
  - { offsetInCU: 0x6F24, offset: 0x11D1B, size: 0x8, addend: 0x0, symName: __ZNSt3__14swapB8ue170006IPP9ComponentEENS_9enable_ifIXaasr21is_move_constructibleIT_EE5valuesr18is_move_assignableIS5_EE5valueEvE4typeERS5_S8_, symObjAddr: 0x2950, symBinAddr: 0x100004240, symSize: 0x40 }
  - { offsetInCU: 0x6F75, offset: 0x11D6C, size: 0x8, addend: 0x0, symName: __ZNSt3__14moveB8ue170006INS_16reverse_iteratorIPP9ComponentEES5_EET0_T_S7_S6_, symObjAddr: 0x2A40, symBinAddr: 0x100004330, symSize: 0x80 }
  - { offsetInCU: 0x6FCF, offset: 0x11DC6, size: 0x8, addend: 0x0, symName: __ZNSt3__16__moveB8ue170006INS_17_ClassicAlgPolicyENS_16reverse_iteratorIPP9ComponentEES6_S6_EENS_4pairIT0_T2_EES8_T1_S9_, symObjAddr: 0x2AC0, symBinAddr: 0x1000043B0, symSize: 0x90 }
  - { offsetInCU: 0x703B, offset: 0x11E32, size: 0x8, addend: 0x0, symName: __ZNSt3__123__dispatch_copy_or_moveB8ue170006INS_17_ClassicAlgPolicyENS_11__move_loopIS1_EENS_14__move_trivialENS_16reverse_iteratorIPP9ComponentEES9_S9_EENS_4pairIT2_T4_EESB_T3_SC_, symObjAddr: 0x2B50, symBinAddr: 0x100004440, symSize: 0x90 }
  - { offsetInCU: 0x70B9, offset: 0x11EB0, size: 0x8, addend: 0x0, symName: __ZNSt3__121__unwrap_and_dispatchB8ue170006INS_10__overloadINS_11__move_loopINS_17_ClassicAlgPolicyEEENS_14__move_trivialEEENS_16reverse_iteratorIPP9ComponentEESB_SB_Li0EEENS_4pairIT0_T2_EESD_T1_SE_, symObjAddr: 0x2BE0, symBinAddr: 0x1000044D0, symSize: 0x210 }
  - { offsetInCU: 0x7148, offset: 0x11F3F, size: 0x8, addend: 0x0, symName: __ZNSt3__114__unwrap_rangeB8ue170006INS_16reverse_iteratorIPP9ComponentEES5_EENS_4pairIT0_S7_EET_S9_, symObjAddr: 0x2DF0, symBinAddr: 0x1000046E0, symSize: 0x90 }
  - { offsetInCU: 0x72C4, offset: 0x120BB, size: 0x8, addend: 0x0, symName: __ZNSt3__113__unwrap_iterB8ue170006INS_16reverse_iteratorIPP9ComponentEENS_18__unwrap_iter_implIS5_Lb0EEELi0EEEDTclsrT0_8__unwrapclsr3stdE7declvalIT_EEEES9_, symObjAddr: 0x2F20, symBinAddr: 0x100004810, symSize: 0x40 }
  - { offsetInCU: 0x7308, offset: 0x120FF, size: 0x8, addend: 0x0, symName: __ZNSt3__19make_pairB8ue170006INS_16reverse_iteratorIPP9ComponentEES5_EENS_4pairINS_18__unwrap_ref_decayIT_E4typeENS7_IT0_E4typeEEEOS8_OSB_, symObjAddr: 0x2F60, symBinAddr: 0x100004850, symSize: 0x30 }
  - { offsetInCU: 0x7357, offset: 0x1214E, size: 0x8, addend: 0x0, symName: __ZNSt3__114__rewrap_rangeB8ue170006INS_16reverse_iteratorIPP9ComponentEES5_EET_S6_T0_, symObjAddr: 0x2F90, symBinAddr: 0x100004880, symSize: 0x60 }
  - { offsetInCU: 0x73A3, offset: 0x1219A, size: 0x8, addend: 0x0, symName: __ZNSt3__113__rewrap_iterB8ue170006INS_16reverse_iteratorIPP9ComponentEES5_NS_18__unwrap_iter_implIS5_Lb0EEEEET_S8_T0_, symObjAddr: 0x2FF0, symBinAddr: 0x1000048E0, symSize: 0x70 }
  - { offsetInCU: 0x73F8, offset: 0x121EF, size: 0x8, addend: 0x0, symName: __ZNSt3__1neB8ue170006IPP9ComponentS3_EEbRKNS_16reverse_iteratorIT_EERKNS4_IT0_EE, symObjAddr: 0x3060, symBinAddr: 0x100004950, symSize: 0x40 }
  - { offsetInCU: 0x7691, offset: 0x12488, size: 0x8, addend: 0x0, symName: __ZSt28__throw_bad_array_new_lengthB8ue170006v, symObjAddr: 0x2740, symBinAddr: 0x100004030, symSize: 0x40 }
  - { offsetInCU: 0x7F02, offset: 0x12CF9, size: 0x8, addend: 0x0, symName: __ZNSt3__16vectorIP9ComponentNS_9allocatorIS2_EEE26__swap_out_circular_bufferERNS_14__split_bufferIS2_RS4_EE, symObjAddr: 0x2090, symBinAddr: 0x100003980, symSize: 0x120 }
  - { offsetInCU: 0x9CD5, offset: 0x14ACC, size: 0x8, addend: 0x0, symName: __ZN9GameWorldC2Ev, symObjAddr: 0x0, symBinAddr: 0x100001A10, symSize: 0x410 }
  - { offsetInCU: 0x9D6A, offset: 0x14B61, size: 0x8, addend: 0x0, symName: __ZNSt3__16vectorIP9ComponentNS_9allocatorIS2_EEEC1B8ue170006Ev, symObjAddr: 0x410, symBinAddr: 0x100001E20, symSize: 0x20 }
  - { offsetInCU: 0x9D92, offset: 0x14B89, size: 0x8, addend: 0x0, symName: __ZNSt3__113basic_ostreamIcNS_11char_traitsIcEEElsB8ue170006EPFRS3_S4_E, symObjAddr: 0x470, symBinAddr: 0x100001E80, symSize: 0x20 }
  - { offsetInCU: 0x9DC5, offset: 0x14BBC, size: 0x8, addend: 0x0, symName: __ZN13GameExceptionC1EPKcNS_25exception_category_levelsE, symObjAddr: 0x4E0, symBinAddr: 0x100001EF0, symSize: 0x30 }
  - { offsetInCU: 0x9E09, offset: 0x14C00, size: 0x8, addend: 0x0, symName: __ZN13GameExceptionD1Ev, symObjAddr: 0x510, symBinAddr: 0x100001F20, symSize: 0x20 }
  - { offsetInCU: 0x9E33, offset: 0x14C2A, size: 0x8, addend: 0x0, symName: __ZNSt3__16vectorIP9ComponentNS_9allocatorIS2_EEED1B8ue170006Ev, symObjAddr: 0x530, symBinAddr: 0x100001F40, symSize: 0x20 }
  - { offsetInCU: 0x9E5B, offset: 0x14C52, size: 0x8, addend: 0x0, symName: __ZN9GameWorldC1Ev, symObjAddr: 0x550, symBinAddr: 0x100001F60, symSize: 0x20 }
  - { offsetInCU: 0x9E85, offset: 0x14C7C, size: 0x8, addend: 0x0, symName: __ZN9GameWorldD2Ev, symObjAddr: 0x570, symBinAddr: 0x100001F80, symSize: 0x160 }
  - { offsetInCU: 0x9F02, offset: 0x14CF9, size: 0x8, addend: 0x0, symName: __ZNSt3__16vectorIP9ComponentNS_9allocatorIS2_EEE5beginB8ue170006Ev, symObjAddr: 0x6E0, symBinAddr: 0x1000020E0, symSize: 0x30 }
  - { offsetInCU: 0x9F29, offset: 0x14D20, size: 0x8, addend: 0x0, symName: __ZNSt3__16vectorIP9ComponentNS_9allocatorIS2_EEE3endB8ue170006Ev, symObjAddr: 0x710, symBinAddr: 0x100002110, symSize: 0x30 }
  - { offsetInCU: 0x9F50, offset: 0x14D47, size: 0x8, addend: 0x0, symName: __ZNKSt3__111__wrap_iterIPP9ComponentEdeB8ue170006Ev, symObjAddr: 0x770, symBinAddr: 0x100002170, symSize: 0x20 }
  - { offsetInCU: 0x9F75, offset: 0x14D6C, size: 0x8, addend: 0x0, symName: __ZNSt3__111__wrap_iterIPP9ComponentEppB8ue170006Ev, symObjAddr: 0x790, symBinAddr: 0x100002190, symSize: 0x20 }
  - { offsetInCU: 0x9F9A, offset: 0x14D91, size: 0x8, addend: 0x0, symName: __ZN9GameWorldD1Ev, symObjAddr: 0x7B0, symBinAddr: 0x1000021B0, symSize: 0x20 }
  - { offsetInCU: 0x9FC4, offset: 0x14DBB, size: 0x8, addend: 0x0, symName: __ZN9GameWorld10get_windowEv, symObjAddr: 0x7D0, symBinAddr: 0x1000021D0, symSize: 0x20 }
  - { offsetInCU: 0x9FEA, offset: 0x14DE1, size: 0x8, addend: 0x0, symName: __ZN9GameWorld12get_rendererEv, symObjAddr: 0x7F0, symBinAddr: 0x1000021F0, symSize: 0x20 }
  - { offsetInCU: 0xA010, offset: 0x14E07, size: 0x8, addend: 0x0, symName: __ZN9GameWorld6updateEv, symObjAddr: 0x810, symBinAddr: 0x100002210, symSize: 0x80 }
  - { offsetInCU: 0xA089, offset: 0x14E80, size: 0x8, addend: 0x0, symName: __ZN9GameWorld6renderEP11SDL_Texture8SDL_RectS2_, symObjAddr: 0x890, symBinAddr: 0x100002290, symSize: 0xE0 }
  - { offsetInCU: 0xA12E, offset: 0x14F25, size: 0x8, addend: 0x0, symName: __ZN9GameWorld13add_componentEP9Component, symObjAddr: 0x970, symBinAddr: 0x100002370, symSize: 0x30 }
  - { offsetInCU: 0xA162, offset: 0x14F59, size: 0x8, addend: 0x0, symName: __ZNSt3__16vectorIP9ComponentNS_9allocatorIS2_EEE9push_backB8ue170006ERKS2_, symObjAddr: 0x9A0, symBinAddr: 0x1000023A0, symSize: 0x60 }
  - { offsetInCU: 0xA198, offset: 0x14F8F, size: 0x8, addend: 0x0, symName: __ZN9GameWorld12handle_inputE9SDL_Event, symObjAddr: 0xA00, symBinAddr: 0x100002400, symSize: 0x20 }
  - { offsetInCU: 0xA1CC, offset: 0x14FC3, size: 0x8, addend: 0x0, symName: __ZN13GameExceptionC2EPKcNS_25exception_category_levelsE, symObjAddr: 0xA20, symBinAddr: 0x100002420, symSize: 0x50 }
  - { offsetInCU: 0xA210, offset: 0x15007, size: 0x8, addend: 0x0, symName: __ZNSt9exceptionC2B8ue170006Ev, symObjAddr: 0xA70, symBinAddr: 0x100002470, symSize: 0x20 }
  - { offsetInCU: 0xA238, offset: 0x1502F, size: 0x8, addend: 0x0, symName: __ZN13GameExceptionD0Ev, symObjAddr: 0xA90, symBinAddr: 0x100002490, symSize: 0x30 }
  - { offsetInCU: 0xA262, offset: 0x15059, size: 0x8, addend: 0x0, symName: __ZN13GameExceptionD2Ev, symObjAddr: 0xAC0, symBinAddr: 0x1000024C0, symSize: 0x20 }
  - { offsetInCU: 0xA28C, offset: 0x15083, size: 0x8, addend: 0x0, symName: __ZNKSt3__111__wrap_iterIPP9ComponentE4baseB8ue170006Ev, symObjAddr: 0xB20, symBinAddr: 0x100002520, symSize: 0x20 }
  - { offsetInCU: 0xA2B1, offset: 0x150A8, size: 0x8, addend: 0x0, symName: __ZNSt3__16vectorIP9ComponentNS_9allocatorIS2_EEEC2B8ue170006Ev, symObjAddr: 0xB40, symBinAddr: 0x100002540, symSize: 0x50 }
  - { offsetInCU: 0xA2E3, offset: 0x150DA, size: 0x8, addend: 0x0, symName: __ZNSt3__117__compressed_pairIPP9ComponentNS_9allocatorIS2_EEEC1B8ue170006IDnNS_18__default_init_tagEEEOT_OT0_, symObjAddr: 0xB90, symBinAddr: 0x100002590, symSize: 0x30 }
  - { offsetInCU: 0xA339, offset: 0x15130, size: 0x8, addend: 0x0, symName: __ZNSt3__117__compressed_pairIPP9ComponentNS_9allocatorIS2_EEEC2B8ue170006IDnNS_18__default_init_tagEEEOT_OT0_, symObjAddr: 0xBC0, symBinAddr: 0x1000025C0, symSize: 0x40 }
  - { offsetInCU: 0xA38F, offset: 0x15186, size: 0x8, addend: 0x0, symName: __ZNSt3__122__compressed_pair_elemIPP9ComponentLi0ELb0EEC2B8ue170006IDnvEEOT_, symObjAddr: 0xC00, symBinAddr: 0x100002600, symSize: 0x20 }
  - { offsetInCU: 0xA3CF, offset: 0x151C6, size: 0x8, addend: 0x0, symName: __ZNSt3__122__compressed_pair_elemINS_9allocatorIP9ComponentEELi1ELb1EEC2B8ue170006ENS_18__default_init_tagE, symObjAddr: 0xC20, symBinAddr: 0x100002620, symSize: 0x20 }
  - { offsetInCU: 0xA401, offset: 0x151F8, size: 0x8, addend: 0x0, symName: __ZNSt3__19allocatorIP9ComponentEC2B8ue170006Ev, symObjAddr: 0xC40, symBinAddr: 0x100002640, symSize: 0x20 }
  - { offsetInCU: 0xA429, offset: 0x15220, size: 0x8, addend: 0x0, symName: __ZNSt3__116__non_trivial_ifILb1ENS_9allocatorIP9ComponentEEEC2B8ue170006Ev, symObjAddr: 0xC60, symBinAddr: 0x100002660, symSize: 0x10 }
  - { offsetInCU: 0xA451, offset: 0x15248, size: 0x8, addend: 0x0, symName: __ZNSt3__16vectorIP9ComponentNS_9allocatorIS2_EEED2B8ue170006Ev, symObjAddr: 0xC70, symBinAddr: 0x100002670, symSize: 0x40 }
  - { offsetInCU: 0xA479, offset: 0x15270, size: 0x8, addend: 0x0, symName: __ZNSt3__16vectorIP9ComponentNS_9allocatorIS2_EEE16__destroy_vectorC1B8ue170006ERS5_, symObjAddr: 0xCB0, symBinAddr: 0x1000026B0, symSize: 0x30 }
  - { offsetInCU: 0xA4B0, offset: 0x152A7, size: 0x8, addend: 0x0, symName: __ZNSt3__16vectorIP9ComponentNS_9allocatorIS2_EEE16__destroy_vectorclB8ue170006Ev, symObjAddr: 0xCE0, symBinAddr: 0x1000026E0, symSize: 0x80 }
  - { offsetInCU: 0xA4D5, offset: 0x152CC, size: 0x8, addend: 0x0, symName: __ZNSt3__16vectorIP9ComponentNS_9allocatorIS2_EEE16__destroy_vectorC2B8ue170006ERS5_, symObjAddr: 0xD60, symBinAddr: 0x100002760, symSize: 0x20 }
  - { offsetInCU: 0xA50C, offset: 0x15303, size: 0x8, addend: 0x0, symName: __ZNSt3__16vectorIP9ComponentNS_9allocatorIS2_EEE7__clearB8ue170006Ev, symObjAddr: 0xD80, symBinAddr: 0x100002780, symSize: 0x20 }
  - { offsetInCU: 0xA531, offset: 0x15328, size: 0x8, addend: 0x0, symName: __ZNKSt3__16vectorIP9ComponentNS_9allocatorIS2_EEE17__annotate_deleteB8ue170006Ev, symObjAddr: 0xDA0, symBinAddr: 0x1000027A0, symSize: 0xB0 }
  - { offsetInCU: 0xA556, offset: 0x1534D, size: 0x8, addend: 0x0, symName: __ZNSt3__116allocator_traitsINS_9allocatorIP9ComponentEEE10deallocateB8ue170006ERS4_PS3_m, symObjAddr: 0xE50, symBinAddr: 0x100002850, symSize: 0x30 }
  - { offsetInCU: 0xA597, offset: 0x1538E, size: 0x8, addend: 0x0, symName: __ZNSt3__16vectorIP9ComponentNS_9allocatorIS2_EEE7__allocB8ue170006Ev, symObjAddr: 0xE80, symBinAddr: 0x100002880, symSize: 0x20 }
  - { offsetInCU: 0xA5BC, offset: 0x153B3, size: 0x8, addend: 0x0, symName: __ZNKSt3__16vectorIP9ComponentNS_9allocatorIS2_EEE8capacityB8ue170006Ev, symObjAddr: 0xEA0, symBinAddr: 0x1000028A0, symSize: 0x30 }
  - { offsetInCU: 0xA5E1, offset: 0x153D8, size: 0x8, addend: 0x0, symName: __ZNSt3__16vectorIP9ComponentNS_9allocatorIS2_EEE22__base_destruct_at_endB8ue170006EPS2_, symObjAddr: 0xED0, symBinAddr: 0x1000028D0, symSize: 0x80 }
  - { offsetInCU: 0xA625, offset: 0x1541C, size: 0x8, addend: 0x0, symName: __ZNSt3__116allocator_traitsINS_9allocatorIP9ComponentEEE7destroyB8ue170006IS3_vEEvRS4_PT_, symObjAddr: 0xF50, symBinAddr: 0x100002950, symSize: 0x30 }
  - { offsetInCU: 0xA661, offset: 0x15458, size: 0x8, addend: 0x0, symName: __ZNSt3__19allocatorIP9ComponentE7destroyB8ue170006EPS2_, symObjAddr: 0xF90, symBinAddr: 0x100002990, symSize: 0x10 }
  - { offsetInCU: 0xA694, offset: 0x1548B, size: 0x8, addend: 0x0, symName: __ZNKSt3__16vectorIP9ComponentNS_9allocatorIS2_EEE31__annotate_contiguous_containerB8ue170006EPKvS7_S7_S7_, symObjAddr: 0xFA0, symBinAddr: 0x1000029A0, symSize: 0x20 }
  - { offsetInCU: 0xA6E9, offset: 0x154E0, size: 0x8, addend: 0x0, symName: __ZNKSt3__16vectorIP9ComponentNS_9allocatorIS2_EEE4dataB8ue170006Ev, symObjAddr: 0xFC0, symBinAddr: 0x1000029C0, symSize: 0x20 }
  - { offsetInCU: 0xA70E, offset: 0x15505, size: 0x8, addend: 0x0, symName: __ZNKSt3__16vectorIP9ComponentNS_9allocatorIS2_EEE4sizeB8ue170006Ev, symObjAddr: 0xFE0, symBinAddr: 0x1000029E0, symSize: 0x20 }
  - { offsetInCU: 0xA733, offset: 0x1552A, size: 0x8, addend: 0x0, symName: __ZNSt3__19allocatorIP9ComponentE10deallocateB8ue170006EPS2_m, symObjAddr: 0x1000, symBinAddr: 0x100002A00, symSize: 0x40 }
  - { offsetInCU: 0xA774, offset: 0x1556B, size: 0x8, addend: 0x0, symName: __ZNSt3__117__compressed_pairIPP9ComponentNS_9allocatorIS2_EEE6secondB8ue170006Ev, symObjAddr: 0x1160, symBinAddr: 0x100002B60, symSize: 0x20 }
  - { offsetInCU: 0xA799, offset: 0x15590, size: 0x8, addend: 0x0, symName: __ZNSt3__122__compressed_pair_elemINS_9allocatorIP9ComponentEELi1ELb1EE5__getB8ue170006Ev, symObjAddr: 0x1180, symBinAddr: 0x100002B80, symSize: 0x10 }
  - { offsetInCU: 0xA7BE, offset: 0x155B5, size: 0x8, addend: 0x0, symName: __ZNKSt3__16vectorIP9ComponentNS_9allocatorIS2_EEE9__end_capB8ue170006Ev, symObjAddr: 0x1190, symBinAddr: 0x100002B90, symSize: 0x20 }
  - { offsetInCU: 0xA7E3, offset: 0x155DA, size: 0x8, addend: 0x0, symName: __ZNKSt3__117__compressed_pairIPP9ComponentNS_9allocatorIS2_EEE5firstB8ue170006Ev, symObjAddr: 0x11B0, symBinAddr: 0x100002BB0, symSize: 0x20 }
  - { offsetInCU: 0xA808, offset: 0x155FF, size: 0x8, addend: 0x0, symName: __ZNKSt3__122__compressed_pair_elemIPP9ComponentLi0ELb0EE5__getB8ue170006Ev, symObjAddr: 0x11D0, symBinAddr: 0x100002BD0, symSize: 0x10 }
  - { offsetInCU: 0xA84B, offset: 0x15642, size: 0x8, addend: 0x0, symName: __ZNKSt3__113basic_ostreamIcNS_11char_traitsIcEEE6sentrycvbB8ue170006Ev, symObjAddr: 0x1400, symBinAddr: 0x100002DD0, symSize: 0x20 }
  - { offsetInCU: 0xA870, offset: 0x15667, size: 0x8, addend: 0x0, symName: __ZNSt3__119ostreambuf_iteratorIcNS_11char_traitsIcEEEC1B8ue170006ERNS_13basic_ostreamIcS2_EE, symObjAddr: 0x1640, symBinAddr: 0x100003010, symSize: 0x30 }
  - { offsetInCU: 0xA8A6, offset: 0x1569D, size: 0x8, addend: 0x0, symName: __ZNKSt3__18ios_base5flagsB8ue170006Ev, symObjAddr: 0x1670, symBinAddr: 0x100003040, symSize: 0x20 }
  - { offsetInCU: 0xA8CD, offset: 0x156C4, size: 0x8, addend: 0x0, symName: __ZNKSt3__19basic_iosIcNS_11char_traitsIcEEE4fillB8ue170006Ev, symObjAddr: 0x1690, symBinAddr: 0x100003060, symSize: 0x70 }
  - { offsetInCU: 0xA8F4, offset: 0x156EB, size: 0x8, addend: 0x0, symName: __ZNKSt3__119ostreambuf_iteratorIcNS_11char_traitsIcEEE6failedB8ue170006Ev, symObjAddr: 0x1700, symBinAddr: 0x1000030D0, symSize: 0x20 }
  - { offsetInCU: 0xA919, offset: 0x15710, size: 0x8, addend: 0x0, symName: __ZNSt3__19basic_iosIcNS_11char_traitsIcEEE8setstateB8ue170006Ej, symObjAddr: 0x1720, symBinAddr: 0x1000030F0, symSize: 0x30 }
  - { offsetInCU: 0xA94D, offset: 0x15744, size: 0x8, addend: 0x0, symName: __ZNKSt3__18ios_base5widthB8ue170006Ev, symObjAddr: 0x1750, symBinAddr: 0x100003120, symSize: 0x20 }
  - { offsetInCU: 0xA974, offset: 0x1576B, size: 0x8, addend: 0x0, symName: __ZNSt3__115basic_streambufIcNS_11char_traitsIcEEE5sputnB8ue170006EPKcl, symObjAddr: 0x1770, symBinAddr: 0x100003140, symSize: 0x30 }
  - { offsetInCU: 0xA9B5, offset: 0x157AC, size: 0x8, addend: 0x0, symName: __ZNSt3__112basic_stringIcNS_11char_traitsIcEENS_9allocatorIcEEEC1B8ue170006Emc, symObjAddr: 0x17A0, symBinAddr: 0x100003170, symSize: 0x30 }
  - { offsetInCU: 0xA9FB, offset: 0x157F2, size: 0x8, addend: 0x0, symName: __ZNSt3__112basic_stringIcNS_11char_traitsIcEENS_9allocatorIcEEE4dataB8ue170006Ev, symObjAddr: 0x17D0, symBinAddr: 0x1000031A0, symSize: 0x30 }
  - { offsetInCU: 0xAA20, offset: 0x15817, size: 0x8, addend: 0x0, symName: __ZNSt3__18ios_base5widthB8ue170006El, symObjAddr: 0x1800, symBinAddr: 0x1000031D0, symSize: 0x30 }
  - { offsetInCU: 0xAA66, offset: 0x1585D, size: 0x8, addend: 0x0, symName: __ZNSt3__112basic_stringIcNS_11char_traitsIcEENS_9allocatorIcEEEC2B8ue170006Emc, symObjAddr: 0x1830, symBinAddr: 0x100003200, symSize: 0x50 }
  - { offsetInCU: 0xAAAC, offset: 0x158A3, size: 0x8, addend: 0x0, symName: __ZNSt3__112basic_stringIcNS_11char_traitsIcEENS_9allocatorIcEEE13__get_pointerB8ue170006Ev, symObjAddr: 0x1950, symBinAddr: 0x100003260, symSize: 0x50 }
  - { offsetInCU: 0xAAD1, offset: 0x158C8, size: 0x8, addend: 0x0, symName: __ZNKSt3__112basic_stringIcNS_11char_traitsIcEENS_9allocatorIcEEE9__is_longB8ue170006Ev, symObjAddr: 0x19A0, symBinAddr: 0x1000032B0, symSize: 0x30 }
  - { offsetInCU: 0xAAF6, offset: 0x158ED, size: 0x8, addend: 0x0, symName: __ZNSt3__112basic_stringIcNS_11char_traitsIcEENS_9allocatorIcEEE18__get_long_pointerB8ue170006Ev, symObjAddr: 0x19D0, symBinAddr: 0x1000032E0, symSize: 0x20 }
  - { offsetInCU: 0xAB1B, offset: 0x15912, size: 0x8, addend: 0x0, symName: __ZNSt3__112basic_stringIcNS_11char_traitsIcEENS_9allocatorIcEEE19__get_short_pointerB8ue170006Ev, symObjAddr: 0x19F0, symBinAddr: 0x100003300, symSize: 0x30 }
  - { offsetInCU: 0xAB40, offset: 0x15937, size: 0x8, addend: 0x0, symName: __ZNKSt3__117__compressed_pairINS_12basic_stringIcNS_11char_traitsIcEENS_9allocatorIcEEE5__repES5_E5firstB8ue170006Ev, symObjAddr: 0x1A20, symBinAddr: 0x100003330, symSize: 0x20 }
  - { offsetInCU: 0xAB65, offset: 0x1595C, size: 0x8, addend: 0x0, symName: __ZNKSt3__122__compressed_pair_elemINS_12basic_stringIcNS_11char_traitsIcEENS_9allocatorIcEEE5__repELi0ELb0EE5__getB8ue170006Ev, symObjAddr: 0x1A40, symBinAddr: 0x100003350, symSize: 0x10 }
  - { offsetInCU: 0xAB8A, offset: 0x15981, size: 0x8, addend: 0x0, symName: __ZNSt3__117__compressed_pairINS_12basic_stringIcNS_11char_traitsIcEENS_9allocatorIcEEE5__repES5_E5firstB8ue170006Ev, symObjAddr: 0x1A50, symBinAddr: 0x100003360, symSize: 0x20 }
  - { offsetInCU: 0xABAF, offset: 0x159A6, size: 0x8, addend: 0x0, symName: __ZNSt3__122__compressed_pair_elemINS_12basic_stringIcNS_11char_traitsIcEENS_9allocatorIcEEE5__repELi0ELb0EE5__getB8ue170006Ev, symObjAddr: 0x1A70, symBinAddr: 0x100003380, symSize: 0x10 }
  - { offsetInCU: 0xABD4, offset: 0x159CB, size: 0x8, addend: 0x0, symName: __ZNSt3__114pointer_traitsIPcE10pointer_toB8ue170006ERc, symObjAddr: 0x1A80, symBinAddr: 0x100003390, symSize: 0x10 }
  - { offsetInCU: 0xABF6, offset: 0x159ED, size: 0x8, addend: 0x0, symName: __ZNSt3__119ostreambuf_iteratorIcNS_11char_traitsIcEEEC2B8ue170006ERNS_13basic_ostreamIcS2_EE, symObjAddr: 0x1A90, symBinAddr: 0x1000033A0, symSize: 0x50 }
  - { offsetInCU: 0xAC2C, offset: 0x15A23, size: 0x8, addend: 0x0, symName: __ZNKSt3__19basic_iosIcNS_11char_traitsIcEEE5rdbufB8ue170006Ev, symObjAddr: 0x1AE0, symBinAddr: 0x1000033F0, symSize: 0x20 }
  - { offsetInCU: 0xAC53, offset: 0x15A4A, size: 0x8, addend: 0x0, symName: __ZNKSt3__18ios_base5rdbufB8ue170006Ev, symObjAddr: 0x1B00, symBinAddr: 0x100003410, symSize: 0x20 }
  - { offsetInCU: 0xAC78, offset: 0x15A6F, size: 0x8, addend: 0x0, symName: __ZNSt3__111char_traitsIcE11eq_int_typeB8ue170006Eii, symObjAddr: 0x1B20, symBinAddr: 0x100003430, symSize: 0x20 }
  - { offsetInCU: 0xACAA, offset: 0x15AA1, size: 0x8, addend: 0x0, symName: __ZNSt3__111char_traitsIcE3eofB8ue170006Ev, symObjAddr: 0x1B40, symBinAddr: 0x100003450, symSize: 0x10 }
  - { offsetInCU: 0xACBE, offset: 0x15AB5, size: 0x8, addend: 0x0, symName: __ZNKSt3__19basic_iosIcNS_11char_traitsIcEEE5widenB8ue170006Ec, symObjAddr: 0x1B50, symBinAddr: 0x100003460, symSize: 0x80 }
  - { offsetInCU: 0xAD2B, offset: 0x15B22, size: 0x8, addend: 0x0, symName: __ZNKSt3__15ctypeIcE5widenB8ue170006Ec, symObjAddr: 0x1C00, symBinAddr: 0x100003510, symSize: 0x30 }
  - { offsetInCU: 0xAD5F, offset: 0x15B56, size: 0x8, addend: 0x0, symName: __ZNSt3__18ios_base8setstateB8ue170006Ej, symObjAddr: 0x1C30, symBinAddr: 0x100003540, symSize: 0x30 }
  - { offsetInCU: 0xAD95, offset: 0x15B8C, size: 0x8, addend: 0x0, symName: __ZNSt3__16vectorIP9ComponentNS_9allocatorIS2_EEE11__make_iterB8ue170006EPS2_, symObjAddr: 0x1C80, symBinAddr: 0x100003570, symSize: 0x30 }
  - { offsetInCU: 0xADC9, offset: 0x15BC0, size: 0x8, addend: 0x0, symName: __ZNSt3__111__wrap_iterIPP9ComponentEC1B8ue170006ES3_, symObjAddr: 0x1CB0, symBinAddr: 0x1000035A0, symSize: 0x30 }
  - { offsetInCU: 0xADFF, offset: 0x15BF6, size: 0x8, addend: 0x0, symName: __ZNSt3__111__wrap_iterIPP9ComponentEC2B8ue170006ES3_, symObjAddr: 0x1CE0, symBinAddr: 0x1000035D0, symSize: 0x20 }
  - { offsetInCU: 0xAE35, offset: 0x15C2C, size: 0x8, addend: 0x0, symName: __ZNSt3__16vectorIP9ComponentNS_9allocatorIS2_EEE9__end_capB8ue170006Ev, symObjAddr: 0x1D00, symBinAddr: 0x1000035F0, symSize: 0x20 }
  - { offsetInCU: 0xAE5A, offset: 0x15C51, size: 0x8, addend: 0x0, symName: __ZNSt3__16vectorIP9ComponentNS_9allocatorIS2_EEE22__construct_one_at_endB8ue170006IJRKS2_EEEvDpOT_, symObjAddr: 0x1D20, symBinAddr: 0x100003610, symSize: 0x90 }
  - { offsetInCU: 0xAEA9, offset: 0x15CA0, size: 0x8, addend: 0x0, symName: __ZNSt3__16vectorIP9ComponentNS_9allocatorIS2_EEE21__push_back_slow_pathIRKS2_EEvOT_, symObjAddr: 0x1DB0, symBinAddr: 0x1000036A0, symSize: 0xD0 }
  - { offsetInCU: 0xAF08, offset: 0x15CFF, size: 0x8, addend: 0x0, symName: __ZNSt3__117__compressed_pairIPP9ComponentNS_9allocatorIS2_EEE5firstB8ue170006Ev, symObjAddr: 0x1E80, symBinAddr: 0x100003770, symSize: 0x20 }
  - { offsetInCU: 0xAF2D, offset: 0x15D24, size: 0x8, addend: 0x0, symName: __ZNSt3__122__compressed_pair_elemIPP9ComponentLi0ELb0EE5__getB8ue170006Ev, symObjAddr: 0x1EA0, symBinAddr: 0x100003790, symSize: 0x10 }
  - { offsetInCU: 0xAF6B, offset: 0x15D62, size: 0x8, addend: 0x0, symName: __ZNSt3__16vectorIP9ComponentNS_9allocatorIS2_EEE21_ConstructTransactionC1B8ue170006ERS5_m, symObjAddr: 0x1EB0, symBinAddr: 0x1000037A0, symSize: 0x30 }
  - { offsetInCU: 0xAFB1, offset: 0x15DA8, size: 0x8, addend: 0x0, symName: __ZNSt3__116allocator_traitsINS_9allocatorIP9ComponentEEE9constructB8ue170006IS3_JRKS3_EvEEvRS4_PT_DpOT0_, symObjAddr: 0x1EE0, symBinAddr: 0x1000037D0, symSize: 0x30 }
  - { offsetInCU: 0xB007, offset: 0x15DFE, size: 0x8, addend: 0x0, symName: __ZNSt3__16vectorIP9ComponentNS_9allocatorIS2_EEE21_ConstructTransactionD1B8ue170006Ev, symObjAddr: 0x1F10, symBinAddr: 0x100003800, symSize: 0x20 }
  - { offsetInCU: 0xB02F, offset: 0x15E26, size: 0x8, addend: 0x0, symName: __ZNSt3__16vectorIP9ComponentNS_9allocatorIS2_EEE21_ConstructTransactionC2B8ue170006ERS5_m, symObjAddr: 0x1F30, symBinAddr: 0x100003820, symSize: 0x40 }
  - { offsetInCU: 0xB075, offset: 0x15E6C, size: 0x8, addend: 0x0, symName: __ZNSt3__19allocatorIP9ComponentE9constructB8ue170006IS2_JRKS2_EEEvPT_DpOT0_, symObjAddr: 0x1F70, symBinAddr: 0x100003860, symSize: 0x20 }
  - { offsetInCU: 0xB0CA, offset: 0x15EC1, size: 0x8, addend: 0x0, symName: __ZNSt3__16vectorIP9ComponentNS_9allocatorIS2_EEE21_ConstructTransactionD2B8ue170006Ev, symObjAddr: 0x1F90, symBinAddr: 0x100003880, symSize: 0x20 }
  - { offsetInCU: 0xB0F2, offset: 0x15EE9, size: 0x8, addend: 0x0, symName: __ZNKSt3__16vectorIP9ComponentNS_9allocatorIS2_EEE11__recommendB8ue170006Em, symObjAddr: 0x1FB0, symBinAddr: 0x1000038A0, symSize: 0xA0 }
  - { offsetInCU: 0xB148, offset: 0x15F3F, size: 0x8, addend: 0x0, symName: __ZNSt3__114__split_bufferIP9ComponentRNS_9allocatorIS2_EEEC1EmmS5_, symObjAddr: 0x2050, symBinAddr: 0x100003940, symSize: 0x40 }
  - { offsetInCU: 0xB19D, offset: 0x15F94, size: 0x8, addend: 0x0, symName: __ZNSt3__114__split_bufferIP9ComponentRNS_9allocatorIS2_EEED1Ev, symObjAddr: 0x21B0, symBinAddr: 0x100003AA0, symSize: 0x20 }
  - { offsetInCU: 0xB1C8, offset: 0x15FBF, size: 0x8, addend: 0x0, symName: __ZNKSt3__16vectorIP9ComponentNS_9allocatorIS2_EEE8max_sizeEv, symObjAddr: 0x21D0, symBinAddr: 0x100003AC0, symSize: 0x60 }
  - { offsetInCU: 0xB1EF, offset: 0x15FE6, size: 0x8, addend: 0x0, symName: __ZNKSt3__16vectorIP9ComponentNS_9allocatorIS2_EEE20__throw_length_errorB8ue170006Ev, symObjAddr: 0x2230, symBinAddr: 0x100003B20, symSize: 0x20 }
  - { offsetInCU: 0xB21E, offset: 0x16015, size: 0x8, addend: 0x0, symName: __ZNSt3__116allocator_traitsINS_9allocatorIP9ComponentEEE8max_sizeB8ue170006IS4_vEEmRKS4_, symObjAddr: 0x22B0, symBinAddr: 0x100003BA0, symSize: 0x20 }
  - { offsetInCU: 0xB24B, offset: 0x16042, size: 0x8, addend: 0x0, symName: __ZNKSt3__16vectorIP9ComponentNS_9allocatorIS2_EEE7__allocB8ue170006Ev, symObjAddr: 0x22D0, symBinAddr: 0x100003BC0, symSize: 0x20 }
  - { offsetInCU: 0xB270, offset: 0x16067, size: 0x8, addend: 0x0, symName: __ZNSt3__114numeric_limitsIlE3maxB8ue170006Ev, symObjAddr: 0x22F0, symBinAddr: 0x100003BE0, symSize: 0x10 }
  - { offsetInCU: 0xB298, offset: 0x1608F, size: 0x8, addend: 0x0, symName: __ZNKSt3__16__lessIvvEclB8ue170006ImmEEbRKT_RKT0_, symObjAddr: 0x2350, symBinAddr: 0x100003C40, symSize: 0x30 }
  - { offsetInCU: 0xB2EB, offset: 0x160E2, size: 0x8, addend: 0x0, symName: __ZNKSt3__19allocatorIP9ComponentE8max_sizeB8ue170006Ev, symObjAddr: 0x2380, symBinAddr: 0x100003C70, symSize: 0x20 }
  - { offsetInCU: 0xB310, offset: 0x16107, size: 0x8, addend: 0x0, symName: __ZNKSt3__117__compressed_pairIPP9ComponentNS_9allocatorIS2_EEE6secondB8ue170006Ev, symObjAddr: 0x23A0, symBinAddr: 0x100003C90, symSize: 0x20 }
  - { offsetInCU: 0xB335, offset: 0x1612C, size: 0x8, addend: 0x0, symName: __ZNKSt3__122__compressed_pair_elemINS_9allocatorIP9ComponentEELi1ELb1EE5__getB8ue170006Ev, symObjAddr: 0x23C0, symBinAddr: 0x100003CB0, symSize: 0x10 }
  - { offsetInCU: 0xB35A, offset: 0x16151, size: 0x8, addend: 0x0, symName: __ZNSt3__123__libcpp_numeric_limitsIlLb1EE3maxB8ue170006Ev, symObjAddr: 0x23D0, symBinAddr: 0x100003CC0, symSize: 0x10 }
  - { offsetInCU: 0xB36E, offset: 0x16165, size: 0x8, addend: 0x0, symName: __ZNSt12length_errorC1B8ue170006EPKc, symObjAddr: 0x2450, symBinAddr: 0x100003D40, symSize: 0x30 }
  - { offsetInCU: 0xB3A4, offset: 0x1619B, size: 0x8, addend: 0x0, symName: __ZNSt12length_errorC2B8ue170006EPKc, symObjAddr: 0x2480, symBinAddr: 0x100003D70, symSize: 0x40 }
  - { offsetInCU: 0xB3DA, offset: 0x161D1, size: 0x8, addend: 0x0, symName: __ZNSt3__114__split_bufferIP9ComponentRNS_9allocatorIS2_EEEC2EmmS5_, symObjAddr: 0x2510, symBinAddr: 0x100003E00, symSize: 0xD0 }
  - { offsetInCU: 0xB44E, offset: 0x16245, size: 0x8, addend: 0x0, symName: __ZNSt3__117__compressed_pairIPP9ComponentRNS_9allocatorIS2_EEEC1B8ue170006IDnS6_EEOT_OT0_, symObjAddr: 0x25E0, symBinAddr: 0x100003ED0, symSize: 0x30 }
  - { offsetInCU: 0xB4A4, offset: 0x1629B, size: 0x8, addend: 0x0, symName: __ZNSt3__114__split_bufferIP9ComponentRNS_9allocatorIS2_EEE7__allocB8ue170006Ev, symObjAddr: 0x2650, symBinAddr: 0x100003F40, symSize: 0x20 }
  - { offsetInCU: 0xB4C9, offset: 0x162C0, size: 0x8, addend: 0x0, symName: __ZNSt3__114__split_bufferIP9ComponentRNS_9allocatorIS2_EEE9__end_capB8ue170006Ev, symObjAddr: 0x2670, symBinAddr: 0x100003F60, symSize: 0x20 }
  - { offsetInCU: 0xB4EE, offset: 0x162E5, size: 0x8, addend: 0x0, symName: __ZNSt3__117__compressed_pairIPP9ComponentRNS_9allocatorIS2_EEEC2B8ue170006IDnS6_EEOT_OT0_, symObjAddr: 0x2690, symBinAddr: 0x100003F80, symSize: 0x40 }
  - { offsetInCU: 0xB544, offset: 0x1633B, size: 0x8, addend: 0x0, symName: __ZNSt3__122__compressed_pair_elemIRNS_9allocatorIP9ComponentEELi1ELb0EEC2B8ue170006IS5_vEEOT_, symObjAddr: 0x26D0, symBinAddr: 0x100003FC0, symSize: 0x20 }
  - { offsetInCU: 0xB584, offset: 0x1637B, size: 0x8, addend: 0x0, symName: __ZNSt3__19allocatorIP9ComponentE8allocateB8ue170006Em, symObjAddr: 0x26F0, symBinAddr: 0x100003FE0, symSize: 0x50 }
  - { offsetInCU: 0xB5B7, offset: 0x163AE, size: 0x8, addend: 0x0, symName: __ZNSt3__117__compressed_pairIPP9ComponentRNS_9allocatorIS2_EEE6secondB8ue170006Ev, symObjAddr: 0x2830, symBinAddr: 0x100004120, symSize: 0x20 }
  - { offsetInCU: 0xB5DC, offset: 0x163D3, size: 0x8, addend: 0x0, symName: __ZNSt3__122__compressed_pair_elemIRNS_9allocatorIP9ComponentEELi1ELb0EE5__getB8ue170006Ev, symObjAddr: 0x2850, symBinAddr: 0x100004140, symSize: 0x20 }
  - { offsetInCU: 0xB601, offset: 0x163F8, size: 0x8, addend: 0x0, symName: __ZNSt3__117__compressed_pairIPP9ComponentRNS_9allocatorIS2_EEE5firstB8ue170006Ev, symObjAddr: 0x2870, symBinAddr: 0x100004160, symSize: 0x20 }
  - { offsetInCU: 0xB626, offset: 0x1641D, size: 0x8, addend: 0x0, symName: __ZNSt3__116reverse_iteratorIPP9ComponentEC1B8ue170006ES3_, symObjAddr: 0x2900, symBinAddr: 0x1000041F0, symSize: 0x30 }
  - { offsetInCU: 0xB65C, offset: 0x16453, size: 0x8, addend: 0x0, symName: __ZNKSt3__116reverse_iteratorIPP9ComponentE4baseB8ue170006Ev, symObjAddr: 0x2930, symBinAddr: 0x100004220, symSize: 0x20 }
  - { offsetInCU: 0xB681, offset: 0x16478, size: 0x8, addend: 0x0, symName: __ZNKSt3__16vectorIP9ComponentNS_9allocatorIS2_EEE14__annotate_newB8ue170006Em, symObjAddr: 0x2990, symBinAddr: 0x100004280, symSize: 0xB0 }
  - { offsetInCU: 0xB6D8, offset: 0x164CF, size: 0x8, addend: 0x0, symName: __ZNKSt3__111__move_loopINS_17_ClassicAlgPolicyEEclB8ue170006INS_16reverse_iteratorIPP9ComponentEES8_S8_EENS_4pairIT_T1_EESA_T0_SB_, symObjAddr: 0x2E80, symBinAddr: 0x100004770, symSize: 0xA0 }
  - { offsetInCU: 0xB747, offset: 0x1653E, size: 0x8, addend: 0x0, symName: __ZNSt3__18_IterOpsINS_17_ClassicAlgPolicyEE11__iter_moveB8ue170006IRNS_16reverse_iteratorIPP9ComponentEEEENS_9enable_ifIXsr12is_referenceIDTdeclsr3stdE7declvalIRT_EEEEE5valueEDTclsr3stdE4movedeclsr3stdE7declvalISC_EEEEE4typeEOSB_, symObjAddr: 0x30A0, symBinAddr: 0x100004990, symSize: 0x20 }
  - { offsetInCU: 0xB772, offset: 0x16569, size: 0x8, addend: 0x0, symName: __ZNKSt3__116reverse_iteratorIPP9ComponentEdeB8ue170006Ev, symObjAddr: 0x30C0, symBinAddr: 0x1000049B0, symSize: 0x30 }
  - { offsetInCU: 0xB7A5, offset: 0x1659C, size: 0x8, addend: 0x0, symName: __ZNSt3__116reverse_iteratorIPP9ComponentEppB8ue170006Ev, symObjAddr: 0x30F0, symBinAddr: 0x1000049E0, symSize: 0x20 }
  - { offsetInCU: 0xB7CA, offset: 0x165C1, size: 0x8, addend: 0x0, symName: __ZNSt3__18_IterOpsINS_17_ClassicAlgPolicyEE25__validate_iter_referenceB8ue170006IRNS_16reverse_iteratorIPP9ComponentEEEEvv, symObjAddr: 0x3110, symBinAddr: 0x100004A00, symSize: 0x10 }
  - { offsetInCU: 0xB7E7, offset: 0x165DE, size: 0x8, addend: 0x0, symName: __ZNSt3__118__unwrap_iter_implINS_16reverse_iteratorIPP9ComponentEELb0EE8__unwrapB8ue170006ES5_, symObjAddr: 0x3120, symBinAddr: 0x100004A10, symSize: 0x20 }
  - { offsetInCU: 0xB80E, offset: 0x16605, size: 0x8, addend: 0x0, symName: __ZNSt3__14pairINS_16reverse_iteratorIPP9ComponentEES5_EC1B8ue170006IS5_S5_LPv0EEEOT_OT0_, symObjAddr: 0x3140, symBinAddr: 0x100004A30, symSize: 0x30 }
  - { offsetInCU: 0xB86B, offset: 0x16662, size: 0x8, addend: 0x0, symName: __ZNSt3__14pairINS_16reverse_iteratorIPP9ComponentEES5_EC2B8ue170006IS5_S5_LPv0EEEOT_OT0_, symObjAddr: 0x3170, symBinAddr: 0x100004A60, symSize: 0x40 }
  - { offsetInCU: 0xB8C8, offset: 0x166BF, size: 0x8, addend: 0x0, symName: __ZNSt3__118__unwrap_iter_implINS_16reverse_iteratorIPP9ComponentEELb0EE8__rewrapB8ue170006ES5_S5_, symObjAddr: 0x31B0, symBinAddr: 0x100004AA0, symSize: 0x30 }
  - { offsetInCU: 0xB8F4, offset: 0x166EB, size: 0x8, addend: 0x0, symName: __ZNSt3__116reverse_iteratorIPP9ComponentEC2B8ue170006ES3_, symObjAddr: 0x31E0, symBinAddr: 0x100004AD0, symSize: 0x30 }
  - { offsetInCU: 0xB92A, offset: 0x16721, size: 0x8, addend: 0x0, symName: __ZNSt3__114__split_bufferIP9ComponentRNS_9allocatorIS2_EEED2Ev, symObjAddr: 0x3210, symBinAddr: 0x100004B00, symSize: 0x70 }
  - { offsetInCU: 0xB955, offset: 0x1674C, size: 0x8, addend: 0x0, symName: __ZNSt3__114__split_bufferIP9ComponentRNS_9allocatorIS2_EEE5clearB8ue170006Ev, symObjAddr: 0x3280, symBinAddr: 0x100004B70, symSize: 0x20 }
  - { offsetInCU: 0xB97A, offset: 0x16771, size: 0x8, addend: 0x0, symName: __ZNKSt3__114__split_bufferIP9ComponentRNS_9allocatorIS2_EEE8capacityB8ue170006Ev, symObjAddr: 0x32A0, symBinAddr: 0x100004B90, symSize: 0x30 }
  - { offsetInCU: 0xB99F, offset: 0x16796, size: 0x8, addend: 0x0, symName: __ZNSt3__114__split_bufferIP9ComponentRNS_9allocatorIS2_EEE17__destruct_at_endB8ue170006EPS2_, symObjAddr: 0x32D0, symBinAddr: 0x100004BC0, symSize: 0x30 }
  - { offsetInCU: 0xB9D2, offset: 0x167C9, size: 0x8, addend: 0x0, symName: __ZNSt3__114__split_bufferIP9ComponentRNS_9allocatorIS2_EEE17__destruct_at_endB8ue170006EPS2_NS_17integral_constantIbLb0EEE, symObjAddr: 0x3300, symBinAddr: 0x100004BF0, symSize: 0x80 }
  - { offsetInCU: 0xBA11, offset: 0x16808, size: 0x8, addend: 0x0, symName: __ZNKSt3__114__split_bufferIP9ComponentRNS_9allocatorIS2_EEE9__end_capB8ue170006Ev, symObjAddr: 0x3380, symBinAddr: 0x100004C70, symSize: 0x20 }
  - { offsetInCU: 0xBA36, offset: 0x1682D, size: 0x8, addend: 0x0, symName: __ZNKSt3__117__compressed_pairIPP9ComponentRNS_9allocatorIS2_EEE5firstB8ue170006Ev, symObjAddr: 0x33A0, symBinAddr: 0x100004C90, symSize: 0x1B }
  - { offsetInCU: 0x3E5D, offset: 0x1A77B, size: 0x8, addend: 0x0, symName: __ZNSt3__1lsB8ue170006IcNS_11char_traitsIcEENS_9allocatorIcEEEERNS_13basic_ostreamIT_T0_EES9_RKNS_12basic_stringIS6_S7_T1_EE, symObjAddr: 0x560, symBinAddr: 0x1000051D0, symSize: 0x50 }
  - { offsetInCU: 0x3EB5, offset: 0x1A7D3, size: 0x8, addend: 0x0, symName: __ZNSt3__112__to_addressB8ue170006IKcEEPT_S3_, symObjAddr: 0x9A0, symBinAddr: 0x100005390, symSize: 0x10 }
  - { offsetInCU: 0x60E7, offset: 0x1CA05, size: 0x8, addend: 0x0, symName: __ZN14AnimationAssetC2Ev, symObjAddr: 0x0, symBinAddr: 0x100004CB0, symSize: 0xA0 }
  - { offsetInCU: 0x6111, offset: 0x1CA2F, size: 0x8, addend: 0x0, symName: __ZNSt3__112basic_stringIcNS_11char_traitsIcEENS_9allocatorIcEEEC1B8ue170006Ev, symObjAddr: 0xA0, symBinAddr: 0x100004D50, symSize: 0x20 }
  - { offsetInCU: 0x6139, offset: 0x1CA57, size: 0x8, addend: 0x0, symName: __ZN14AnimationAssetC1Ev, symObjAddr: 0xC0, symBinAddr: 0x100004D70, symSize: 0x20 }
  - { offsetInCU: 0x6163, offset: 0x1CA81, size: 0x8, addend: 0x0, symName: __ZN14AnimationAssetD2Ev, symObjAddr: 0xE0, symBinAddr: 0x100004D90, symSize: 0x40 }
  - { offsetInCU: 0x618D, offset: 0x1CAAB, size: 0x8, addend: 0x0, symName: __ZN14AnimationAssetD1Ev, symObjAddr: 0x120, symBinAddr: 0x100004DD0, symSize: 0x20 }
  - { offsetInCU: 0x61B7, offset: 0x1CAD5, size: 0x8, addend: 0x0, symName: __ZN14AnimationAsset16set_anim_textureEP11SDL_Texture, symObjAddr: 0x140, symBinAddr: 0x100004DF0, symSize: 0x20 }
  - { offsetInCU: 0x61EB, offset: 0x1CB09, size: 0x8, addend: 0x0, symName: __ZN14AnimationAsset16get_anim_textureEv, symObjAddr: 0x160, symBinAddr: 0x100004E10, symSize: 0x20 }
  - { offsetInCU: 0x6211, offset: 0x1CB2F, size: 0x8, addend: 0x0, symName: __ZN14AnimationAsset14set_num_framesEi, symObjAddr: 0x180, symBinAddr: 0x100004E30, symSize: 0x20 }
  - { offsetInCU: 0x6245, offset: 0x1CB63, size: 0x8, addend: 0x0, symName: __ZN14AnimationAsset16set_texture_pathENSt3__112basic_stringIcNS0_11char_traitsIcEENS0_9allocatorIcEEEE, symObjAddr: 0x1A0, symBinAddr: 0x100004E50, symSize: 0x30 }
  - { offsetInCU: 0x627A, offset: 0x1CB98, size: 0x8, addend: 0x0, symName: __ZN14AnimationAsset16get_texture_pathEv, symObjAddr: 0x1D0, symBinAddr: 0x100004E80, symSize: 0x30 }
  - { offsetInCU: 0x62A0, offset: 0x1CBBE, size: 0x8, addend: 0x0, symName: __ZN14AnimationAsset12set_src_rectE8SDL_Rect, symObjAddr: 0x200, symBinAddr: 0x100004EB0, symSize: 0x30 }
  - { offsetInCU: 0x62D4, offset: 0x1CBF2, size: 0x8, addend: 0x0, symName: __ZN14AnimationAsset12get_src_rectEv, symObjAddr: 0x230, symBinAddr: 0x100004EE0, symSize: 0x20 }
  - { offsetInCU: 0x62FA, offset: 0x1CC18, size: 0x8, addend: 0x0, symName: __ZN14AnimationAsset13set_dest_rectE8SDL_Rect, symObjAddr: 0x250, symBinAddr: 0x100004F00, symSize: 0x30 }
  - { offsetInCU: 0x632E, offset: 0x1CC4C, size: 0x8, addend: 0x0, symName: __ZN14AnimationAsset13get_dest_rectEv, symObjAddr: 0x280, symBinAddr: 0x100004F30, symSize: 0x20 }
  - { offsetInCU: 0x6354, offset: 0x1CC72, size: 0x8, addend: 0x0, symName: __ZN14AnimationAsset12load_textureEP12SDL_Renderer, symObjAddr: 0x2A0, symBinAddr: 0x100004F50, symSize: 0x260 }
  - { offsetInCU: 0x63D7, offset: 0x1CCF5, size: 0x8, addend: 0x0, symName: __ZNKSt3__112basic_stringIcNS_11char_traitsIcEENS_9allocatorIcEEE5c_strB8ue170006Ev, symObjAddr: 0x500, symBinAddr: 0x1000051B0, symSize: 0x20 }
  - { offsetInCU: 0x63FC, offset: 0x1CD1A, size: 0x8, addend: 0x0, symName: __ZN14AnimationAsset6updateEv, symObjAddr: 0x670, symBinAddr: 0x100005220, symSize: 0x60 }
  - { offsetInCU: 0x6430, offset: 0x1CD4E, size: 0x8, addend: 0x0, symName: __ZN14AnimationAsset6renderEP12SDL_Renderer, symObjAddr: 0x6D0, symBinAddr: 0x100005280, symSize: 0x40 }
  - { offsetInCU: 0x6464, offset: 0x1CD82, size: 0x8, addend: 0x0, symName: __ZNSt3__112basic_stringIcNS_11char_traitsIcEENS_9allocatorIcEEEC2B8ue170006Ev, symObjAddr: 0x7D0, symBinAddr: 0x1000052C0, symSize: 0x50 }
  - { offsetInCU: 0x648C, offset: 0x1CDAA, size: 0x8, addend: 0x0, symName: __ZNSt3__112basic_stringIcNS_11char_traitsIcEENS_9allocatorIcEEE14__default_initB8ue170006Ev, symObjAddr: 0x860, symBinAddr: 0x100005310, symSize: 0x50 }
  - { offsetInCU: 0x64B1, offset: 0x1CDCF, size: 0x8, addend: 0x0, symName: __ZNKSt3__112basic_stringIcNS_11char_traitsIcEENS_9allocatorIcEEE4dataB8ue170006Ev, symObjAddr: 0x970, symBinAddr: 0x100005360, symSize: 0x30 }
  - { offsetInCU: 0x64D6, offset: 0x1CDF4, size: 0x8, addend: 0x0, symName: __ZNKSt3__112basic_stringIcNS_11char_traitsIcEENS_9allocatorIcEEE13__get_pointerB8ue170006Ev, symObjAddr: 0x9B0, symBinAddr: 0x1000053A0, symSize: 0x50 }
  - { offsetInCU: 0x64FB, offset: 0x1CE19, size: 0x8, addend: 0x0, symName: __ZNKSt3__112basic_stringIcNS_11char_traitsIcEENS_9allocatorIcEEE18__get_long_pointerB8ue170006Ev, symObjAddr: 0xA30, symBinAddr: 0x1000053F0, symSize: 0x20 }
  - { offsetInCU: 0x6520, offset: 0x1CE3E, size: 0x8, addend: 0x0, symName: __ZNKSt3__112basic_stringIcNS_11char_traitsIcEENS_9allocatorIcEEE19__get_short_pointerB8ue170006Ev, symObjAddr: 0xA50, symBinAddr: 0x100005410, symSize: 0x30 }
  - { offsetInCU: 0x6546, offset: 0x1CE64, size: 0x8, addend: 0x0, symName: __ZNSt3__114pointer_traitsIPKcE10pointer_toB8ue170006ERS1_, symObjAddr: 0xAB0, symBinAddr: 0x100005440, symSize: 0x10 }
  - { offsetInCU: 0x6567, offset: 0x1CE85, size: 0x8, addend: 0x0, symName: __ZNKSt3__112basic_stringIcNS_11char_traitsIcEENS_9allocatorIcEEE4sizeB8ue170006Ev, symObjAddr: 0xCB0, symBinAddr: 0x100005450, symSize: 0x50 }
  - { offsetInCU: 0x65AA, offset: 0x1CEC8, size: 0x8, addend: 0x0, symName: __ZNKSt3__112basic_stringIcNS_11char_traitsIcEENS_9allocatorIcEEE15__get_long_sizeB8ue170006Ev, symObjAddr: 0x1410, symBinAddr: 0x1000054A0, symSize: 0x20 }
  - { offsetInCU: 0x65CF, offset: 0x1CEED, size: 0x8, addend: 0x0, symName: __ZNKSt3__112basic_stringIcNS_11char_traitsIcEENS_9allocatorIcEEE16__get_short_sizeB8ue170006Ev, symObjAddr: 0x1430, symBinAddr: 0x1000054C0, symSize: 0x30 }
  - { offsetInCU: 0x26, offset: 0x1D1CA, size: 0x8, addend: 0x0, symName: __ZN6Player6updateEv, symObjAddr: 0x0, symBinAddr: 0x1000054F0, symSize: 0x20 }
  - { offsetInCU: 0x5930, offset: 0x22AD4, size: 0x8, addend: 0x0, symName: __ZN6Player6updateEv, symObjAddr: 0x0, symBinAddr: 0x1000054F0, symSize: 0x20 }
  - { offsetInCU: 0x5956, offset: 0x22AFA, size: 0x8, addend: 0x0, symName: __ZN6Player14set_anim_assetEP14AnimationAsset, symObjAddr: 0x20, symBinAddr: 0x100005510, symSize: 0x20 }
  - { offsetInCU: 0x598A, offset: 0x22B2E, size: 0x8, addend: 0x0, symName: __ZN6Player14get_anim_assetEv, symObjAddr: 0x40, symBinAddr: 0x100005530, symSize: 0x20 }
  - { offsetInCU: 0x59B0, offset: 0x22B54, size: 0x8, addend: 0x0, symName: __ZN6Player6renderEP12SDL_Renderer, symObjAddr: 0x60, symBinAddr: 0x100005550, symSize: 0x30 }
  - { offsetInCU: 0x59E4, offset: 0x22B88, size: 0x8, addend: 0x0, symName: __ZN6Player16setup_anim_assetEP14AnimationAsset, symObjAddr: 0x90, symBinAddr: 0x100005580, symSize: 0xF0 }
  - { offsetInCU: 0x5A51, offset: 0x22BF5, size: 0x8, addend: 0x0, symName: __ZN6Player13add_componentI14AnimationAssetEEvPT_, symObjAddr: 0x180, symBinAddr: 0x100005670, symSize: 0xA0 }
  - { offsetInCU: 0x5A8E, offset: 0x22C32, size: 0x8, addend: 0x0, symName: __ZN9Component13add_componentI14AnimationAssetEEvT_, symObjAddr: 0x220, symBinAddr: 0x100005710, symSize: 0x10 }
  - { offsetInCU: 0x5AD5, offset: 0x22C79, size: 0x8, addend: 0x0, symName: __ZN14AnimationAssetC1ERKS_, symObjAddr: 0x230, symBinAddr: 0x100005720, symSize: 0x30 }
  - { offsetInCU: 0x5B08, offset: 0x22CAC, size: 0x8, addend: 0x0, symName: __ZN14AnimationAssetC2ERKS_, symObjAddr: 0x260, symBinAddr: 0x100005750, symSize: 0x90 }
  - { offsetInCU: 0x5B45, offset: 0x22CE9, size: 0x8, addend: 0x0, symName: __ZN9ComponentC2ERKS_, symObjAddr: 0x2F0, symBinAddr: 0x1000057E0, symSize: 0x34 }
  - { offsetInCU: 0x26, offset: 0x22D47, size: 0x8, addend: 0x0, symName: __ZN13GameException4whatEv, symObjAddr: 0x0, symBinAddr: 0x100005820, symSize: 0x20 }
  - { offsetInCU: 0x2948, offset: 0x25669, size: 0x8, addend: 0x0, symName: __ZN13GameException4whatEv, symObjAddr: 0x0, symBinAddr: 0x100005820, symSize: 0x20 }
  - { offsetInCU: 0x296E, offset: 0x2568F, size: 0x8, addend: 0x0, symName: __ZNK13GameException22get_exception_categoryEv, symObjAddr: 0x20, symBinAddr: 0x100005840, symSize: 0x11 }
...
